; Function Attrs: nounwind uwtable
define hidden range(i32 -1, 1) i32 @_PyPegen_insert_memo(ptr noundef readonly captures(none) %0, i32 noundef %1, i32 noundef %2, ptr noundef %3) local_unnamed_addr #1 {
  %5 = getelementptr inbounds nuw i8, ptr %0, i64 32
  %6 = load ptr, ptr %5, align 8, !tbaa !28
  %7 = tail call ptr @_PyArena_Malloc(ptr noundef %6, i64 noundef 32) #13
  %8 = icmp eq ptr %7, null
  br i1 %8, label %24, label %9

9:                                                ; preds = %4
  store i32 %2, ptr %7, align 8, !tbaa !29
  %10 = getelementptr inbounds nuw i8, ptr %7, i64 8
  store ptr %3, ptr %10, align 8, !tbaa !32
  %11 = getelementptr inbounds nuw i8, ptr %0, i64 16
  %12 = load i32, ptr %11, align 8, !tbaa !33
  %13 = getelementptr inbounds nuw i8, ptr %7, i64 16
  store i32 %12, ptr %13, align 8, !tbaa !34
  %14 = getelementptr inbounds nuw i8, ptr %0, i64 8
  %15 = load ptr, ptr %14, align 8, !tbaa !35
  %16 = sext i32 %1 to i64
  %17 = getelementptr ptr, ptr %15, i64 %16
  %18 = load ptr, ptr %17, align 8, !tbaa !36
  %19 = getelementptr inbounds nuw i8, ptr %18, i64 40
  %20 = load ptr, ptr %19, align 8, !tbaa !37
  %21 = getelementptr inbounds nuw i8, ptr %7, i64 24
  store ptr %20, ptr %21, align 8, !tbaa !39
  %22 = load ptr, ptr %17, align 8, !tbaa !36
  %23 = getelementptr inbounds nuw i8, ptr %22, i64 40
  store ptr %7, ptr %23, align 8, !tbaa !37
  br label %24

24:                                               ; preds = %4, %9
  %.0 = phi i32 [ 0, %9 ], [ -1, %4 ]
  ret i32 %.0
}